; ModuleID = '38/1628.c'
source_filename = "38/1628.c"
target datalayout = "e-m:e-p270:32:32-p271:32:32-p272:64:64-i64:64-f80:128-n8:16:32:64-S128"
target triple = "x86_64-pc-linux-gnu"

@.str = private unnamed_addr constant [4 x i8] c"%d\0A\00", align 1
@.str.1 = private unnamed_addr constant [5 x i8] c"%lf \00", align 1
@.str.2 = private unnamed_addr constant [5 x i8] c"%lf\0A\00", align 1
@.str.3 = private unnamed_addr constant [7 x i8] c"%.5lf\0A\00", align 1

; Function Attrs: noinline nounwind uwtable
define dso_local i32 @main() #0 {
  %1 = alloca i32, align 4
  %2 = alloca i32, align 4
  %3 = alloca i8*, align 8
  %4 = alloca i64, align 8
  %5 = alloca i64, align 8
  %6 = alloca i32, align 4
  %7 = alloca i32, align 4
  %8 = alloca i64, align 8
  %9 = alloca i64, align 8
  %10 = alloca i64, align 8
  %11 = alloca i64, align 8
  store i32 0, i32* %1, align 4
  %12 = call i32 (i8*, ...) @__isoc99_scanf(i8* getelementptr inbounds ([4 x i8], [4 x i8]* @.str, i64 0, i64 0), i32* %2)
  %13 = load i32, i32* %2, align 4
  %14 = zext i32 %13 to i64
  %15 = call i8* @llvm.stacksave()
  store i8* %15, i8** %3, align 8
  %16 = alloca i32, i64 %14, align 16
  store i64 %14, i64* %4, align 8
  %17 = load i32, i32* %2, align 4
  %18 = zext i32 %17 to i64
  %19 = alloca [1000 x double], i64 %18, align 16
  store i64 %18, i64* %5, align 8
  store i32 0, i32* %6, align 4
  br label %20

20:                                               ; preds = %60, %0
  %21 = load i32, i32* %6, align 4
  %22 = load i32, i32* %2, align 4
  %23 = icmp slt i32 %21, %22
  br i1 %23, label %24, label %63

24:                                               ; preds = %20
  %25 = load i32, i32* %6, align 4
  %26 = sext i32 %25 to i64
  %27 = getelementptr inbounds i32, i32* %16, i64 %26
  %28 = call i32 (i8*, ...) @__isoc99_scanf(i8* getelementptr inbounds ([4 x i8], [4 x i8]* @.str, i64 0, i64 0), i32* %27)
  store i32 0, i32* %7, align 4
  br label %29

29:                                               ; preds = %45, %24
  %30 = load i32, i32* %7, align 4
  %31 = load i32, i32* %6, align 4
  %32 = sext i32 %31 to i64
  %33 = getelementptr inbounds i32, i32* %16, i64 %32
  %34 = load i32, i32* %33, align 4
  %35 = sub nsw i32 %34, 1
  %36 = icmp slt i32 %30, %35
  br i1 %36, label %37, label %48

37:                                               ; preds = %29
  %38 = load i32, i32* %6, align 4
  %39 = sext i32 %38 to i64
  %40 = getelementptr inbounds [1000 x double], [1000 x double]* %19, i64 %39
  %41 = load i32, i32* %7, align 4
  %42 = sext i32 %41 to i64
  %43 = getelementptr inbounds [1000 x double], [1000 x double]* %40, i64 0, i64 %42
  %44 = call i32 (i8*, ...) @__isoc99_scanf(i8* getelementptr inbounds ([5 x i8], [5 x i8]* @.str.1, i64 0, i64 0), double* %43)
  br label %45

45:                                               ; preds = %37
  %46 = load i32, i32* %7, align 4
  %47 = add nsw i32 %46, 1
  store i32 %47, i32* %7, align 4
  br label %29

48:                                               ; preds = %29
  %49 = load i32, i32* %6, align 4
  %50 = sext i32 %49 to i64
  %51 = getelementptr inbounds [1000 x double], [1000 x double]* %19, i64 %50
  %52 = load i32, i32* %6, align 4
  %53 = sext i32 %52 to i64
  %54 = getelementptr inbounds i32, i32* %16, i64 %53
  %55 = load i32, i32* %54, align 4
  %56 = sub nsw i32 %55, 1
  %57 = sext i32 %56 to i64
  %58 = getelementptr inbounds [1000 x double], [1000 x double]* %51, i64 0, i64 %57
  %59 = call i32 (i8*, ...) @__isoc99_scanf(i8* getelementptr inbounds ([5 x i8], [5 x i8]* @.str.2, i64 0, i64 0), double* %58)
  br label %60

60:                                               ; preds = %48
  %61 = load i32, i32* %6, align 4
  %62 = add nsw i32 %61, 1
  store i32 %62, i32* %6, align 4
  br label %20

63:                                               ; preds = %20
  %64 = load i32, i32* %2, align 4
  %65 = zext i32 %64 to i64
  %66 = alloca double, i64 %65, align 16
  store i64 %65, i64* %8, align 8
  %67 = load i32, i32* %2, align 4
  %68 = zext i32 %67 to i64
  %69 = alloca double, i64 %68, align 16
  store i64 %68, i64* %9, align 8
  store i32 0, i32* %6, align 4
  br label %70

70:                                               ; preds = %78, %63
  %71 = load i32, i32* %6, align 4
  %72 = load i32, i32* %2, align 4
  %73 = icmp slt i32 %71, %72
  br i1 %73, label %74, label %81

74:                                               ; preds = %70
  %75 = load i32, i32* %6, align 4
  %76 = sext i32 %75 to i64
  %77 = getelementptr inbounds double, double* %66, i64 %76
  store double 0.000000e+00, double* %77, align 8
  br label %78

78:                                               ; preds = %74
  %79 = load i32, i32* %6, align 4
  %80 = add nsw i32 %79, 1
  store i32 %80, i32* %6, align 4
  br label %70

81:                                               ; preds = %70
  store i32 0, i32* %6, align 4
  br label %82

82:                                               ; preds = %124, %81
  %83 = load i32, i32* %6, align 4
  %84 = load i32, i32* %2, align 4
  %85 = icmp slt i32 %83, %84
  br i1 %85, label %86, label %127

86:                                               ; preds = %82
  store i32 0, i32* %7, align 4
  br label %87

87:                                               ; preds = %107, %86
  %88 = load i32, i32* %7, align 4
  %89 = load i32, i32* %6, align 4
  %90 = sext i32 %89 to i64
  %91 = getelementptr inbounds i32, i32* %16, i64 %90
  %92 = load i32, i32* %91, align 4
  %93 = icmp slt i32 %88, %92
  br i1 %93, label %94, label %110

94:                                               ; preds = %87
  %95 = load i32, i32* %6, align 4
  %96 = sext i32 %95 to i64
  %97 = getelementptr inbounds [1000 x double], [1000 x double]* %19, i64 %96
  %98 = load i32, i32* %7, align 4
  %99 = sext i32 %98 to i64
  %100 = getelementptr inbounds [1000 x double], [1000 x double]* %97, i64 0, i64 %99
  %101 = load double, double* %100, align 8
  %102 = load i32, i32* %6, align 4
  %103 = sext i32 %102 to i64
  %104 = getelementptr inbounds double, double* %66, i64 %103
  %105 = load double, double* %104, align 8
  %106 = fadd double %105, %101
  store double %106, double* %104, align 8
  br label %107

107:                                              ; preds = %94
  %108 = load i32, i32* %7, align 4
  %109 = add nsw i32 %108, 1
  store i32 %109, i32* %7, align 4
  br label %87

110:                                              ; preds = %87
  %111 = load i32, i32* %6, align 4
  %112 = sext i32 %111 to i64
  %113 = getelementptr inbounds double, double* %66, i64 %112
  %114 = load double, double* %113, align 8
  %115 = load i32, i32* %6, align 4
  %116 = sext i32 %115 to i64
  %117 = getelementptr inbounds i32, i32* %16, i64 %116
  %118 = load i32, i32* %117, align 4
  %119 = sitofp i32 %118 to double
  %120 = fdiv double %114, %119
  %121 = load i32, i32* %6, align 4
  %122 = sext i32 %121 to i64
  %123 = getelementptr inbounds double, double* %69, i64 %122
  store double %120, double* %123, align 8
  br label %124

124:                                              ; preds = %110
  %125 = load i32, i32* %6, align 4
  %126 = add nsw i32 %125, 1
  store i32 %126, i32* %6, align 4
  br label %82

127:                                              ; preds = %82
  %128 = load i32, i32* %2, align 4
  %129 = zext i32 %128 to i64
  %130 = alloca double, i64 %129, align 16
  store i64 %129, i64* %10, align 8
  %131 = load i32, i32* %2, align 4
  %132 = zext i32 %131 to i64
  %133 = alloca double, i64 %132, align 16
  store i64 %132, i64* %11, align 8
  store i32 0, i32* %6, align 4
  br label %134

134:                                              ; preds = %142, %127
  %135 = load i32, i32* %6, align 4
  %136 = load i32, i32* %2, align 4
  %137 = icmp slt i32 %135, %136
  br i1 %137, label %138, label %145

138:                                              ; preds = %134
  %139 = load i32, i32* %6, align 4
  %140 = sext i32 %139 to i64
  %141 = getelementptr inbounds double, double* %133, i64 %140
  store double 0.000000e+00, double* %141, align 8
  br label %142

142:                                              ; preds = %138
  %143 = load i32, i32* %6, align 4
  %144 = add nsw i32 %143, 1
  store i32 %144, i32* %6, align 4
  br label %134

145:                                              ; preds = %134
  store i32 0, i32* %6, align 4
  br label %146

146:                                              ; preds = %212, %145
  %147 = load i32, i32* %6, align 4
  %148 = load i32, i32* %2, align 4
  %149 = icmp slt i32 %147, %148
  br i1 %149, label %150, label %215

150:                                              ; preds = %146
  store i32 0, i32* %7, align 4
  br label %151

151:                                              ; preds = %189, %150
  %152 = load i32, i32* %7, align 4
  %153 = load i32, i32* %6, align 4
  %154 = sext i32 %153 to i64
  %155 = getelementptr inbounds i32, i32* %16, i64 %154
  %156 = load i32, i32* %155, align 4
  %157 = icmp slt i32 %152, %156
  br i1 %157, label %158, label %192

158:                                              ; preds = %151
  %159 = load i32, i32* %6, align 4
  %160 = sext i32 %159 to i64
  %161 = getelementptr inbounds [1000 x double], [1000 x double]* %19, i64 %160
  %162 = load i32, i32* %7, align 4
  %163 = sext i32 %162 to i64
  %164 = getelementptr inbounds [1000 x double], [1000 x double]* %161, i64 0, i64 %163
  %165 = load double, double* %164, align 8
  %166 = load i32, i32* %6, align 4
  %167 = sext i32 %166 to i64
  %168 = getelementptr inbounds double, double* %69, i64 %167
  %169 = load double, double* %168, align 8
  %170 = fsub double %165, %169
  %171 = load i32, i32* %6, align 4
  %172 = sext i32 %171 to i64
  %173 = getelementptr inbounds [1000 x double], [1000 x double]* %19, i64 %172
  %174 = load i32, i32* %7, align 4
  %175 = sext i32 %174 to i64
  %176 = getelementptr inbounds [1000 x double], [1000 x double]* %173, i64 0, i64 %175
  %177 = load double, double* %176, align 8
  %178 = load i32, i32* %6, align 4
  %179 = sext i32 %178 to i64
  %180 = getelementptr inbounds double, double* %69, i64 %179
  %181 = load double, double* %180, align 8
  %182 = fsub double %177, %181
  %183 = fmul double %170, %182
  %184 = load i32, i32* %6, align 4
  %185 = sext i32 %184 to i64
  %186 = getelementptr inbounds double, double* %133, i64 %185
  %187 = load double, double* %186, align 8
  %188 = fadd double %187, %183
  store double %188, double* %186, align 8
  br label %189

189:                                              ; preds = %158
  %190 = load i32, i32* %7, align 4
  %191 = add nsw i32 %190, 1
  store i32 %191, i32* %7, align 4
  br label %151

192:                                              ; preds = %151
  %193 = load i32, i32* %6, align 4
  %194 = sext i32 %193 to i64
  %195 = getelementptr inbounds double, double* %133, i64 %194
  %196 = load double, double* %195, align 8
  %197 = load i32, i32* %6, align 4
  %198 = sext i32 %197 to i64
  %199 = getelementptr inbounds i32, i32* %16, i64 %198
  %200 = load i32, i32* %199, align 4
  %201 = sitofp i32 %200 to double
  %202 = fdiv double %196, %201
  %203 = call double @sqrt(double %202) #2
  %204 = load i32, i32* %6, align 4
  %205 = sext i32 %204 to i64
  %206 = getelementptr inbounds double, double* %130, i64 %205
  store double %203, double* %206, align 8
  %207 = load i32, i32* %6, align 4
  %208 = sext i32 %207 to i64
  %209 = getelementptr inbounds double, double* %130, i64 %208
  %210 = load double, double* %209, align 8
  %211 = call i32 (i8*, ...) @printf(i8* getelementptr inbounds ([7 x i8], [7 x i8]* @.str.3, i64 0, i64 0), double %210)
  br label %212

212:                                              ; preds = %192
  %213 = load i32, i32* %6, align 4
  %214 = add nsw i32 %213, 1
  store i32 %214, i32* %6, align 4
  br label %146

215:                                              ; preds = %146
  store i32 0, i32* %1, align 4
  %216 = load i8*, i8** %3, align 8
  call void @llvm.stackrestore(i8* %216)
  %217 = load i32, i32* %1, align 4
  ret i32 %217
}

declare dso_local i32 @__isoc99_scanf(i8*, ...) #1

; Function Attrs: nounwind
declare i8* @llvm.stacksave() #2

; Function Attrs: nounwind
declare dso_local double @sqrt(double) #3

declare dso_local i32 @printf(i8*, ...) #1

; Function Attrs: nounwind
declare void @llvm.stackrestore(i8*) #2


!llvm.module.flags = !{!0}
!llvm.ident = !{!1}

!0 = !{i32 1, !"wchar_size", i32 4}
!1 = !{!"clang version 10.0.0-4ubuntu1 "}
